target datalayout = "e-m:e-p270:32:32-p271:32:32-p272:64:64-i64:64-i128:128-f80:128-n8:16:32:64-S128"
target triple = "x86_64-pc-linux-gnu"

%struct.ossl_param_st = type { ptr, i32, ptr, i64, i64 }

@.str.49 = private unnamed_addr constant [12 x i8] c"reseed_time\00", align 1

; Function Attrs: nounwind uwtable
define internal i64 @reseed_time(ptr noundef %0) #0 {
  %2 = alloca i64, align 8
  %3 = alloca ptr, align 8
  %4 = alloca [2 x %struct.ossl_param_st], align 16
  %5 = alloca i64, align 8
  %6 = alloca %struct.ossl_param_st, align 8
  %7 = alloca i32, align 4
  store ptr %0, ptr %3, align 8, !tbaa !8
  call void @llvm.lifetime.start.p0(i64 80, ptr %4) #8
  call void @llvm.memset.p0.i64(ptr align 16 %4, i8 0, i64 80, i1 false)
  call void @llvm.lifetime.start.p0(i64 8, ptr %5) #8
  %8 = getelementptr inbounds [2 x %struct.ossl_param_st], ptr %4, i64 0, i64 0
  call void @llvm.lifetime.start.p0(i64 40, ptr %6) #8
  call void @OSSL_PARAM_construct_time_t(ptr dead_on_unwind writable sret(%struct.ossl_param_st) align 8 %6, ptr noundef @.str.49, ptr noundef %5)
  call void @llvm.memcpy.p0.p0.i64(ptr align 16 %8, ptr align 8 %6, i64 40, i1 false), !tbaa.struct !28
  call void @llvm.lifetime.end.p0(i64 40, ptr %6) #8
  %9 = load ptr, ptr %3, align 8, !tbaa !8
  %10 = getelementptr inbounds [2 x %struct.ossl_param_st], ptr %4, i64 0, i64 0
  %11 = call i32 @EVP_RAND_CTX_get_params(ptr noundef %9, ptr noundef %10)
  %12 = icmp ne i32 %11, 0
  br i1 %12, label %13, label %15

13:                                               ; preds = %1
  %14 = load i64, ptr %5, align 8, !tbaa !16
  store i64 %14, ptr %2, align 8
  store i32 1, ptr %7, align 4
  br label %16

15:                                               ; preds = %1
  store i64 0, ptr %2, align 8
  store i32 1, ptr %7, align 4
  br label %16

16:                                               ; preds = %15, %13
  call void @llvm.lifetime.end.p0(i64 8, ptr %5) #8
  call void @llvm.lifetime.end.p0(i64 80, ptr %4) #8
  %17 = load i64, ptr %2, align 8
  ret i64 %17
}