; Function Attrs: nounwind uwtable
define internal fastcc i64 @reseed_time(ptr noundef %0) unnamed_addr #0 {
  %2 = alloca [2 x %struct.ossl_param_st], align 16
  %3 = alloca i64, align 8
  call void @llvm.lifetime.start.p0(i64 80, ptr nonnull %2) #14
  call void @llvm.lifetime.start.p0(i64 8, ptr nonnull %3) #14
  call void @OSSL_PARAM_construct_time_t(ptr dead_on_unwind nonnull writable sret(%struct.ossl_param_st) align 8 %2, ptr noundef nonnull @.str.49, ptr noundef nonnull %3) #14
  %4 = getelementptr inbounds nuw i8, ptr %2, i64 40
  call void @llvm.memset.p0.i64(ptr noundef nonnull align 8 dereferenceable(40) %4, i8 0, i64 40, i1 false)
  %5 = call i32 @EVP_RAND_CTX_get_params(ptr noundef %0, ptr noundef nonnull %2) #14
  %.not = icmp eq i32 %5, 0
  %6 = load i64, ptr %3, align 8
  %.0 = select i1 %.not, i64 0, i64 %6
  call void @llvm.lifetime.end.p0(i64 8, ptr nonnull %3) #14
  call void @llvm.lifetime.end.p0(i64 80, ptr nonnull %2) #14
  ret i64 %.0
}